; Function Attrs: mustprogress uwtable
define hidden void @_ZN4cvc58internalorERKNS0_9BitVectorES3_(ptr dead_on_unwind noalias writable sret(%"class.cvc5::internal::BitVector") align 8 initializes((0, 4)) %0, ptr noundef nonnull align 8 dereferenceable(24) %1, ptr noundef nonnull align 8 dereferenceable(24) %2) local_unnamed_addr #3 personality ptr @__gxx_personality_v0 {
  %4 = alloca %"class.cvc5::internal::Integer", align 8
  %5 = load i32, ptr %1, align 8, !tbaa !11
  call void @llvm.lifetime.start.p0(i64 16, ptr nonnull %4) #16
  %6 = getelementptr inbounds nuw i8, ptr %1, i64 8
  %7 = getelementptr inbounds nuw i8, ptr %2, i64 8
  call void @_ZNK4cvc58internal7Integer9bitwiseOrERKS1_(ptr dead_on_unwind nonnull writable sret(%"class.cvc5::internal::Integer") align 8 %4, ptr noundef nonnull align 8 dereferenceable(16) %6, ptr noundef nonnull align 8 dereferenceable(16) %7)
  store i32 %5, ptr %0, align 8, !tbaa !11
  %8 = getelementptr inbounds nuw i8, ptr %0, i64 8
  invoke void @_ZNK4cvc58internal7Integer9modByPow2Ej(ptr dead_on_unwind nonnull writable sret(%"class.cvc5::internal::Integer") align 8 %8, ptr noundef nonnull align 8 dereferenceable(16) %4, i32 noundef %5)
          to label %_ZN4cvc58internal9BitVectorC2EjRKNS0_7IntegerE.exit unwind label %12

_ZN4cvc58internal9BitVectorC2EjRKNS0_7IntegerE.exit: ; preds = %3
  invoke void @__gmpz_clear(ptr noundef nonnull align 8 dereferenceable(16) %4)
          to label %_ZN4cvc58internal7IntegerD2Ev.exit unwind label %9

9:                                                ; preds = %_ZN4cvc58internal9BitVectorC2EjRKNS0_7IntegerE.exit
  %10 = landingpad { ptr, i32 }
          catch ptr null
  %11 = extractvalue { ptr, i32 } %10, 0
  call void @__clang_call_terminate(ptr %11) #17
  unreachable

_ZN4cvc58internal7IntegerD2Ev.exit:               ; preds = %_ZN4cvc58internal9BitVectorC2EjRKNS0_7IntegerE.exit
  call void @llvm.lifetime.end.p0(i64 16, ptr nonnull %4) #16
  ret void

12:                                               ; preds = %3
  %13 = landingpad { ptr, i32 }
          cleanup
  invoke void @__gmpz_clear(ptr noundef nonnull align 8 dereferenceable(16) %4)
          to label %_ZN4cvc58internal7IntegerD2Ev.exit4 unwind label %14

14:                                               ; preds = %12
  %15 = landingpad { ptr, i32 }
          catch ptr null
  %16 = extractvalue { ptr, i32 } %15, 0
  call void @__clang_call_terminate(ptr %16) #17
  unreachable

_ZN4cvc58internal7IntegerD2Ev.exit4:              ; preds = %12
  call void @llvm.lifetime.end.p0(i64 16, ptr nonnull %4) #16
  resume { ptr, i32 } %13
}